; Function Attrs: mustprogress uwtable
define noundef ptr @_ZN3re29Prefilter8SimplifyEv(ptr noundef nonnull align 8 dereferenceable(52) %this) local_unnamed_addr #0 align 2 personality ptr @__gxx_personality_v0 {
entry:
  %0 = load i32, ptr %this, align 8
  %.off5 = add i32 %0, -3
  %switch6 = icmp ult i32 %.off5, 2
  br i1 %switch6, label %if.end.preheader, label %return

if.end.preheader:                                 ; preds = %entry
  %subs_15 = getelementptr inbounds i8, ptr %this, i64 8
  %1 = load ptr, ptr %subs_15, align 8
  %2 = load ptr, ptr %1, align 8
  %_M_finish.i.i16 = getelementptr inbounds i8, ptr %1, i64 8
  %3 = load ptr, ptr %_M_finish.i.i16, align 8
  %cmp.i.i17 = icmp eq ptr %2, %3
  br i1 %cmp.i.i17, label %if.then4, label %if.end11

if.end:                                           ; preds = %_ZNSt6vectorIPN3re29PrefilterESaIS2_EE5clearEv.exit
  %subs_ = getelementptr inbounds i8, ptr %9, i64 8
  %4 = load ptr, ptr %subs_, align 8
  %5 = load ptr, ptr %4, align 8
  %_M_finish.i.i = getelementptr inbounds i8, ptr %4, i64 8
  %6 = load ptr, ptr %_M_finish.i.i, align 8
  %cmp.i.i = icmp eq ptr %5, %6
  br i1 %cmp.i.i, label %if.then4, label %if.end11

if.then4:                                         ; preds = %if.end, %if.end.preheader
  %.lcssa = phi i32 [ %0, %if.end.preheader ], [ %10, %if.end ]
  %this.tr7.lcssa = phi ptr [ %this, %if.end.preheader ], [ %9, %if.end ]
  %cmp6 = icmp ne i32 %.lcssa, 3
  %. = zext i1 %cmp6 to i32
  store i32 %., ptr %this.tr7.lcssa, align 8
  br label %return

if.end11:                                         ; preds = %if.end.preheader, %if.end
  %7 = phi ptr [ %6, %if.end ], [ %3, %if.end.preheader ]
  %_M_finish.i.i19 = phi ptr [ %_M_finish.i.i, %if.end ], [ %_M_finish.i.i16, %if.end.preheader ]
  %8 = phi ptr [ %5, %if.end ], [ %2, %if.end.preheader ]
  %this.tr718 = phi ptr [ %9, %if.end ], [ %this, %if.end.preheader ]
  %sub.ptr.lhs.cast.i = ptrtoint ptr %7 to i64
  %sub.ptr.rhs.cast.i = ptrtoint ptr %8 to i64
  %sub.ptr.sub.i = sub i64 %sub.ptr.lhs.cast.i, %sub.ptr.rhs.cast.i
  %cmp14 = icmp eq i64 %sub.ptr.sub.i, 8
  br i1 %cmp14, label %_ZNSt6vectorIPN3re29PrefilterESaIS2_EE5clearEv.exit, label %return

_ZNSt6vectorIPN3re29PrefilterESaIS2_EE5clearEv.exit: ; preds = %if.end11
  %9 = load ptr, ptr %8, align 8
  store ptr %8, ptr %_M_finish.i.i19, align 8
  tail call void @_ZN3re29PrefilterD1Ev(ptr noundef nonnull align 8 dereferenceable(52) %this.tr718) #16
  tail call void @_ZdlPv(ptr noundef nonnull %this.tr718) #18
  %10 = load i32, ptr %9, align 8
  %.off = add i32 %10, -3
  %switch = icmp ult i32 %.off, 2
  br i1 %switch, label %if.end, label %return

return:                                           ; preds = %if.end11, %_ZNSt6vectorIPN3re29PrefilterESaIS2_EE5clearEv.exit, %entry, %if.then4
  %this.tr4 = phi ptr [ %this.tr7.lcssa, %if.then4 ], [ %this, %entry ], [ %this.tr718, %if.end11 ], [ %9, %_ZNSt6vectorIPN3re29PrefilterESaIS2_EE5clearEv.exit ]
  ret ptr %this.tr4
}